(dp0
S'/Sources/Jojo2/Data/Gfx/FemaleModel/Female_SkinToneA_enter_3.psd'
p1
I1820901301
sS'/Sources/Jojo2/Data/Gfx/FemaleModelNew/Female_SkinToneA_enter_2.psd'
p2
I-1328468397
sS'/Sources/Jojo2/Data/Gfx/FemaleModelNew/Female_Model_Hair_6_D.psd'
p3
I-1805480428
sS'/Sources/Jojo2/Data/Gfx/FemaleModel/Female_Model_Hair_9_B.psd'
p4
I-337717286
sS'/Sources/Jojo2/Data/Gfx/MaleModel/Male_Model_Hair_3_D.psd'
p5
I-395325769
sS'/Sources/Jojo2/Data/Gfx/MaleModel/Male_Model_Hair_4_D.psd'
p6
I2041547074
sS'/Sources/Jojo2/Data/Gfx/FemaleModel/Female_SkinToneC_normal.psd'
p7
I-1845492640
sS'/Sources/Jojo2/Data/Gfx/FemaleModelNew/Female_Model_Hair_3_A.psd'
p8
I734639555
sS'/Sources/Jojo2/Data/Gfx/RunwayMode/starburst.psd'
p9
I953410901
sS'/Sources/Jojo2/Data/Gfx/MaleModel/Male_SkinToneD_enter_5.psd'
p10
I1425816329
sS'/Sources/Jojo2/Data/Gfx/FemaleModel/Female_Model_Hair_PonytailBlack.psd'
p11
I-667267701
sS'/Sources/Jojo2/Data/Gfx/MaleModel/Male_SkinToneA_enter_6.psd'
p12
I1270903165
sS'/Sources/Jojo2/Data/Gfx/FemaleModel/Female_Model_Hair_BackLayer_BangsRed_back.psd'
p13
I-1874198586
sS'/Sources/Jojo2/Data/Gfx/FemaleModel/Female_Model_Hair_9_A.psd'
p14
I-33283684
sS'/Sources/Jojo2/Data/Gfx/MaleModel/Male_SkinToneA_enter_2.psd'
p15
I1403376549
sS'/Sources/Jojo2/Data/Gfx/FemaleModel/Female_Model_Hair_PonytailOrange.psd'
p16
I1449848315
sS'/Sources/Jojo2/Data/Gfx/FemaleModelNew/Female_Model_Hair_BoyCutBlonde.psd'
p17
I1513590827
sS'/Sources/Jojo2/Data/Gfx/FemaleModelNew/Female_Model_Hair_FroBrown.psd'
p18
I2145106
sS'/Sources/Jojo2/Data/Gfx/FemaleModel/Female_Model_Hair_FroBlonde.psd'
p19
I-362333971
sS'/Sources/Jojo2/Data/Gfx/FemaleModel/Female_SkinToneB_idle_1.psd'
p20
I-1134001966
sS'/Sources/Jojo2/Data/Gfx/MaleModel/Male_Model_Hair_9_A.psd'
p21
I1700633132
sS'/Sources/Jojo2/Data/Gfx/FemaleModel/Female_Model_Hair_FroBlack.psd'
p22
I758454208
sS'/Sources/Jojo2/Data/Gfx/FemaleModel/Female_SkinToneA_idle_3.psd'
p23
I1124822608
sS'/Sources/Jojo2/Data/Gfx/FemaleModelNew/Female_SkinToneD_enter_2.psd'
p24
I1824576068
sS'/Sources/Jojo2/Data/Gfx/MaleModel/Male_Model_Face_D.psd'
p25
I2010364235
sS'/Sources/Jojo2/Data/Gfx/MaleModel/Male_SkinToneA_enter_5.psd'
p26
I-5896476
sS'/Sources/Jojo2/Data/Gfx/MaleModel/Male_ModelHeads_SkinToneB.psd'
p27
I-1527592143
sS'/Sources/Jojo2/Data/Gfx/MaleModel/Male_SkinToneD_enter_1.psd'
p28
I2057100088
sS'/Sources/Jojo2/Data/Gfx/FemaleModel/Female_Model_Hair_7_D.psd'
p29
I997871845
sS'/Sources/Jojo2/Data/Gfx/FemaleModelNew/Female_Model_Hair_BoyCutRed.psd'
p30
I-1237124191
sS'/Sources/Jojo2/Data/Gfx/FemaleModelNew/Female_SkinToneA_normal.psd'
p31
I310698502
sS'/Sources/Jojo2/Data/Gfx/FemaleModelNew/Female_Model_Face_D.psd'
p32
I-748168702
sS'/Sources/Jojo2/Data/Gfx/FemaleModel/Female_Model_Hair_1_C.psd'
p33
I1652826688
sS'/Sources/Jojo2/Data/Gfx/FemaleModelNew/Female_SkinToneD_idle_4.psd'
p34
I1035237627
sS'/Sources/Jojo2/Data/Gfx/FemaleModel/Female_Model_Hair_9_C.psd'
p35
I-1395118712
sS'/Sources/Jojo2/Data/Gfx/FemaleModel/Female_Model_Hair_6_C.psd'
p36
I705689794
sS'/Sources/Jojo2/Data/Gfx/FemaleModelNew/Female_SkinToneB_idle_4.psd'
p37
I-1366758542
sS'/Sources/Jojo2/Data/Gfx/MaleModel/Male_SkinToneB_enter_2.psd'
p38
I-1899694856
sS'/Sources/Jojo2/Data/Gfx/FemaleModel/Female_Model_Hair_ShortBrown.psd'
p39
I-1614209718
sS'/Sources/Jojo2/Data/Gfx/FemaleModelNew/Female_SkinToneD_idle_2.psd'
p40
I570350417
sS'/Sources/Jojo2/Data/Gfx/FemaleModel/Female_Model_Hair_BangsLightBrown.psd'
p41
I-539197530
sS'/Sources/Jojo2/Data/Gfx/FemaleModel/Female_Model_Hair_LongBlonde.psd'
p42
I-928757336
sS'/Sources/Jojo2/Data/Gfx/FemaleModel/Female_SkinToneD_idle_3.psd'
p43
I-1096662485
sS'/Sources/Jojo2/Data/Gfx/FemaleModelNew/Female_SkinToneC_idle_4.psd'
p44
I442771773
sS'/Sources/Jojo2/Data/Gfx/FemaleModelNew/Female_Model_Hair_ShortRed.psd'
p45
I823880820
sS'/Sources/Jojo2/Data/Gfx/FemaleModel/Female_Model_Hair_BackLayer_9_C_back.psd'
p46
I1675966106
sS'/Sources/Jojo2/Data/Gfx/FemaleModelNew/Female_SkinToneC_enter_2.psd'
p47
I-1090782463
sS'/Sources/Jojo2/Data/Gfx/FemaleModel/Female_Model_Hair_BoyCutBlack.psd'
p48
I1956472214
sS'/Sources/Jojo2/Data/Gfx/FemaleModelNew/Female_SkinToneC_idle_3.psd'
p49
I1086060959
sS'/Sources/Jojo2/Data/Gfx/FemaleModelNew/Female_Model_Hair_1_B.psd'
p50
I1511747543
sS'/Sources/Jojo2/Data/Gfx/FemaleModel/Female_ModelHeads_SkinToneD.psd'
p51
I-783554941
sS'/Sources/Jojo2/Data/Gfx/FemaleModel/Female_Model_Hair_BoyCutRed.psd'
p52
I937711213
sS'/Sources/Jojo2/Data/Gfx/FemaleModel/Female_Model_Hair_ShortDarkBrown.psd'
p53
I-1985764304
sS'/Sources/Jojo2/Data/Gfx/MaleModel/Male_Model_Hair_2_D.psd'
p54
I1601179415
sS'/Sources/Jojo2/Data/Gfx/FemaleModel/Female_SkinToneB_idle_4.psd'
p55
I-1614323048
sS'/Sources/Jojo2/Data/Gfx/FemaleModel/Female_Model_Hair_8_B.psd'
p56
I-1615554642
sS'/Sources/Jojo2/Data/Gfx/Fonts/small_white_font.psd'
p57
I279200282
sS'/Sources/Jojo2/Data/Gfx/FemaleModelNew/Female_Model_Hair_3_E.psd'
p58
I-49136834
sS'/Sources/Jojo2/Data/Gfx/MaleModel/Male_SkinToneC_enter_3.psd'
p59
I778507517
sS'/Sources/Jojo2/Data/Gfx/FemaleModel/Female_ModelHeads_SkinToneC.psd'
p60
I783951742
sS'/Sources/Jojo2/Data/Gfx/FemaleModelNew/Female_Model_Hair_BackLayer_LongBlonde_back.psd'
p61
I1140401626
sS'/Sources/Jojo2/Data/Gfx/FemaleModelNew/Female_Model_Hair_BackLayer_9_C_back.psd'
p62
I621412966
sS'/Sources/Jojo2/Data/Gfx/MaleModel/Male_Model_Hair_3_C.psd'
p63
I-141615738
sS'/Sources/Jojo2/Data/Gfx/FemaleModel/Female_Model_Face_F.psd'
p64
I-62893465
sS'/Sources/Jojo2/Data/Gfx/FemaleModel/Female_SkinToneB_enter_4.psd'
p65
I52730718
sS'/Sources/Jojo2/Data/Gfx/FemaleModelNew/Female_Model_Hair_ShoulderLengthRed.psd'
p66
I-359863251
sS'/Sources/Jojo2/Data/Gfx/MaleModel/Male_SkinToneB_enter_6.psd'
p67
I860450558
sS'/Sources/Jojo2/Data/Gfx/FemaleModelNew/Female_SkinToneD_idle_3.psd'
p68
I-363264446
sS'/Sources/Jojo2/Data/Gfx/FemaleModelNew/Female_Model_Hair_3_C.psd'
p69
I-680546401
sS'/Sources/Jojo2/Data/Gfx/MaleModel/Male_SkinToneC_idle_3.psd'
p70
I-1950058604
sS'/Sources/Jojo2/Data/Gfx/MaleModel/Male_Model_Face_C.psd'
p71
I1411834325
sS'/Sources/Jojo2/Data/Gfx/FemaleModelNew/Female_Model_Hair_ChinLengthBlonde.psd'
p72
I-445456217
sS'/Sources/Jojo2/Data/Gfx/MaleModel/Male_Model_Hair_4_C.psd'
p73
I-1857939365
sS'/Sources/Jojo2/Data/Gfx/FemaleModelNew/Female_SkinToneA_idle_2.psd'
p74
I1820153192
sS'/Sources/Jojo2/Data/Gfx/PhotoModeUI/ScoringBG.psd'
p75
I-379547738
sS'/Sources/Jojo2/Data/Gfx/MaleModel/Male_SkinToneB_enter_5.psd'
p76
I614884854
sS'/Sources/Jojo2/Data/Gfx/MaleModel/Male_SkinToneC_idle_1.psd'
p77
I1985168181
sS'/Sources/Jojo2/Data/Gfx/FemaleModelNew/Female_Model_Hair_ShortDarkBrown.psd'
p78
I-2058548466
sS'/Sources/Jojo2/Data/Gfx/MaleModel/Male_SkinToneA_enter_1.psd'
p79
I1518805750
sS'/Sources/Jojo2/Data/Gfx/FemaleModel/Female_Model_Hair_BackLayer_10_B_back.psd'
p80
I2078976253
sS'/Sources/Jojo2/Data/Gfx/PhotoModeUI/CameraLens.psd'
p81
I1258590861
sS'/Sources/Jojo2/Data/Gfx/MaleModel/Male_Model_Hair_10_A.psd'
p82
I200232262
sS'/Sources/Jojo2/Data/Gfx/FemaleModel/Female_SkinToneB_idle_3.psd'
p83
I661869753
sS'/Sources/Jojo2/Data/Gfx/FemaleModel/Female_Model_Hair_10_B.psd'
p84
I1822484214
sS'/Sources/Jojo2/Data/Gfx/RunwayMode/nomatch_large.psd'
p85
I2047803390
sS'/Sources/Jojo2/Data/Gfx/FemaleModel/Female_Model_Hair_BobRed.psd'
p86
I790437196
sS'/Sources/Jojo2/Data/Gfx/FemaleModel/Female_Model_Hair_5_A.psd'
p87
I429800255
sS'/Sources/Jojo2/Data/Gfx/FemaleModelNew/Female_Model_Hair_PonytailBlonde.psd'
p88
I1303942283
sS'/Sources/Jojo2/Data/Gfx/FemaleModel/Female_Model_Hair_ShoulderLengthDarkBrown.psd'
p89
I1441736316
sS'/Sources/Jojo2/Data/Gfx/MaleModel/Male_SkinToneC_enter_6.psd'
p90
I1684655959
sS'/Sources/Jojo2/Data/Gfx/FemaleModel/Female_SkinToneD_idle_4.psd'
p91
I1860760383
sS'/Sources/Jojo2/Data/Gfx/FemaleModel/Female_Model_Hair_BackLayer_9_A_back.psd'
p92
I1522540696
sS'/Sources/Jojo2/Data/Gfx/FemaleModelNew/Female_Model_Face_A.psd'
p93
I-927164063
sS'/Sources/Jojo2/Data/Gfx/FemaleModel/Female_Model_Hair_10_A.psd'
p94
I314860015
sS'/Sources/Jojo2/Data/Gfx/FemaleModelNew/Female_Model_Hair_BackLayer_9_B_back.psd'
p95
I1371673757
sS'/Sources/Jojo2/Data/Gfx/MaleModel/Male_Model_Face_F.psd'
p96
I-757011108
sS'/Sources/Jojo2/Data/Gfx/FemaleModel/Female_Model_Face_A.psd'
p97
I-1676434376
sS'/Sources/Jojo2/Data/Gfx/FemaleModel/Female_Model_Hair_FroBrown.psd'
p98
I-1254167954
sS'/Sources/Jojo2/Data/Gfx/FemaleModelNew/Female_SkinToneD_enter_4.psd'
p99
I-1099405682
sS'/Sources/Jojo2/Data/Gfx/FemaleModel/Female_Model_Hair_3_C.psd'
p100
I255331068
sS'/Sources/Jojo2/Data/Gfx/FemaleModelNew/Female_Model_Hair_ChinLengthBrown.psd'
p101
I-154082528
sS'/Sources/Jojo2/Data/Gfx/FemaleModelNew/Female_SkinToneB_enter_1.psd'
p102
I-1504881442
sS'/Sources/Jojo2/Data/Gfx/FemaleModelNew/Female_SkinToneC_idle_2.psd'
p103
I580648892
sS'/Sources/Jojo2/Data/Gfx/FemaleModelNew/Female_SkinToneB_idle_3.psd'
p104
I-1146859914
sS'/Sources/Jojo2/Data/Gfx/FemaleModel/Female_Model_Hair_BackLayer_LongLightBrown_back.psd'
p105
I-1571928914
sS'/Sources/Jojo2/Data/Gfx/MaleModel/Male_SkinToneD_idle_1.psd'
p106
I415707907
sS'/Sources/Jojo2/Data/Gfx/FemaleModel/Female_SkinToneB_normal.psd'
p107
I-873320229
sS'/Sources/Jojo2/Data/Gfx/FemaleModelNew/Female_SkinToneA_enter_1.psd'
p108
I-1511540002
sS'/Sources/Jojo2/Data/Gfx/FemaleModel/Female_SkinToneC_idle_4.psd'
p109
I-1239379159
sS'/Sources/Jojo2/Data/Gfx/FemaleModelNew/Female_Model_Hair_2_A.psd'
p110
I-1314307272
sS'/Sources/Jojo2/Data/Gfx/FemaleModel/Female_Model_Hair_LongLightBrown.psd'
p111
I-1012265151
sS'/Sources/Jojo2/Data/Gfx/FemaleModelNew/Female_Model_Hair_5_C.psd'
p112
I-725876940
sS'/Sources/Jojo2/Data/Gfx/FemaleModelNew/Female_Model_Hair_10_B.psd'
p113
I943179699
sS'/Sources/Jojo2/Data/Gfx/FemaleModelNew/Female_SkinToneC_normal.psd'
p114
I355439139
sS'/Sources/Jojo2/Data/Gfx/MaleModel/Male_SkinToneD_enter_2.psd'
p115
I761184126
sS'/Sources/Jojo2/Data/Gfx/FemaleModel/Female_SkinToneC_enter_4.psd'
p116
I158844361
sS'/Sources/Jojo2/Data/Gfx/FemaleModel/Female_SkinToneD_normal.psd'
p117
I1345489
sS'/Sources/Jojo2/Data/Gfx/FemaleModelNew/Female_SkinToneB_enter_4.psd'
p118
I1477612917
sS'/Sources/Jojo2/Data/Gfx/FemaleModelNew/Female_Model_Hair_BackLayer_BangsRed_back.psd'
p119
I-1023748494
sS'/Sources/Jojo2/Data/Gfx/FemaleModelNew/Female_Model_Hair_BangsBrown.psd'
p120
I-405258976
sS'/Sources/Jojo2/Data/Gfx/FemaleModel/Female_Model_Hair_6_D.psd'
p121
I2096483658
sS'/Sources/Jojo2/Data/Gfx/MaleModel/Male_SkinToneD_idle_2.psd'
p122
I2068026794
sS'/Sources/Jojo2/Data/Gfx/FemaleModelNew/Female_Model_Hair_BackLayer_9_A_back.psd'
p123
I548741855
sS'/Sources/Jojo2/Data/Gfx/FemaleModelNew/Female_Model_Hair_2_B.psd'
p124
I1035188784
sS'/Sources/Jojo2/Data/Gfx/MaleModel/Male_SkinToneB_enter_1.psd'
p125
I977319240
sS'/Sources/Jojo2/Data/Gfx/FemaleModelNew/Female_Model_Hair_PonytailBlack.psd'
p126
I403843126
sS'/Sources/Jojo2/Data/Gfx/FemaleModel/Female_Model_Hair_5_D.psd'
p127
I1554485047
sS'/Sources/Jojo2/Data/Gfx/FemaleModelNew/Female_Model_glasses_WhiteCircle.psd'
p128
I-482228528
sS'/Sources/Jojo2/Data/Gfx/FemaleModel/Female_Model_Hair_PonytailBlonde.psd'
p129
I-1120721515
sS'/Sources/Jojo2/Data/Gfx/MaleModel/Male_SkinToneC_idle_5.psd'
p130
I-647885060
sS'/Sources/Jojo2/Data/Gfx/MaleModel/Male_Model_Hair_6_A.psd'
p131
I1451547986
sS'/Sources/Jojo2/Data/Gfx/FemaleModelNew/Female_Model_Hair_LongBlonde.psd'
p132
I-1640191073
sS'/Sources/Jojo2/Data/Gfx/MaleModel/Male_ModelHeads_SkinToneA.psd'
p133
I1786283802
sS'/Sources/Jojo2/Data/Gfx/FemaleModel/Female_Model_Hair_BackLayer_9_B_back.psd'
p134
I-34645695
sS'/Sources/Jojo2/Data/Gfx/FemaleModelNew/Female_SkinToneB_idle_1.psd'
p135
I-999104182
sS'/Sources/Jojo2/Data/Gfx/FemaleModelNew/Female_Model_Hair_BangsLightBrown.psd'
p136
I2145210163
sS'/Sources/Jojo2/Data/Gfx/FemaleModel/Female_SkinToneA_enter_2.psd'
p137
I-1316360009
sS'/Sources/Jojo2/Data/Gfx/MaleModel/Male_Model_Hair_6_E.psd'
p138
I-1459187797
sS'/Sources/Jojo2/Data/Gfx/FemaleModel/Female_Model_Hair_5_C.psd'
p139
I-334759459
sS'/Sources/Jojo2/Data/Gfx/FemaleModelNew/Female_Model_Face_C.psd'
p140
I-684254451
sS'/Sources/Jojo2/Data/Gfx/FemaleModelNew/Female_Model_Hair_PointyBrown.psd'
p141
I1383934869
sS'/Sources/Jojo2/Data/Gfx/MaleModel/Male_Model_Hair_3_B.psd'
p142
I512212438
sS'/Sources/Jojo2/Data/Gfx/FemaleModelNew/Female_Model_Hair_LongBrown.psd'
p143
I1018483213
sS'/Sources/Jojo2/Data/Gfx/MaleModel/Male_Model_Hair_2_C.psd'
p144
I1797448640
sS'/Sources/Jojo2/Data/Gfx/MaleModel/Male_SkinToneC_idle_2.psd'
p145
I-1407228997
sS'/Sources/Jojo2/Data/Gfx/MaleModel/Male_SkinToneC_enter_4.psd'
p146
I124968443
sS'/Sources/Jojo2/Data/Gfx/FemaleModelNew/Female_Model_Hair_7_C.psd'
p147
I936120358
sS'/Sources/Jojo2/Data/Gfx/FemaleModelNew/Female_Model_Hair_9_C.psd'
p148
I92437319
sS'/Sources/Jojo2/Data/Gfx/FemaleModelNew/Female_SkinToneC_idle_1.psd'
p149
I1864556724
sS'/Sources/Jojo2/Data/Gfx/FemaleModel/Female_SkinToneA_normal.psd'
p150
I-998441567
sS'/Sources/Jojo2/Data/Gfx/MaleModel/Male_SkinToneC_enter_1.psd'
p151
I-105146293
sS'/Sources/Jojo2/Data/Gfx/FemaleModel/Female_Model_Hair_ShortRed.psd'
p152
I564334977
sS'/Sources/Jojo2/Data/Gfx/FemaleModel/Female_Model_Hair_ChinLengthBlack.psd'
p153
I-2145755424
sS'/Sources/Jojo2/Data/Gfx/FemaleModelNew/Female_Model_Hair_9_A.psd'
p154
I156266275
sS'/Sources/Jojo2/Data/Gfx/MaleModel/Male_Model_Hair_4_B.psd'
p155
I457555254
sS'/Sources/Jojo2/Data/Gfx/FemaleModel/Female_SkinToneC_enter_3.psd'
p156
I1385137860
sS'/Sources/Jojo2/Data/Gfx/FemaleModelNew/Female_Model_Hair_PonytailOrange.psd'
p157
I-214415215
sS'/Sources/Jojo2/Data/Gfx/FemaleModelNew/Female_Model_Hair_BackLayer_BangsBrown_back.psd'
p158
I-2098509885
sS'/Sources/Jojo2/Data/Gfx/FemaleModelNew/Female_Model_Hair_ChinLengthBlack.psd'
p159
I2147465668
sS'/Sources/Jojo2/Data/Gfx/FemaleModelNew/Female_ModelHeads_SkinToneD.psd'
p160
I-2076924003
sS'/Sources/Jojo2/Data/Gfx/FemaleModel/Female_SkinToneD_enter_2.psd'
p161
I461355589
sS'/Sources/Jojo2/Data/Gfx/FemaleModelNew/Female_SkinToneB_normal.psd'
p162
I-2145475690
sS'/Sources/Jojo2/Data/Gfx/FemaleModel/Female_SkinToneB_enter_3.psd'
p163
I-1610260149
sS'/Sources/Jojo2/Data/Gfx/MaleModel/Male_SkinToneD_idle_3.psd'
p164
I-1397508875
sS'/Sources/Jojo2/Data/Gfx/FemaleModelNew/Female_SkinToneD_enter_3.psd'
p165
I-743671423
sS'/Sources/Jojo2/Data/Gfx/FemaleModelNew/Female_Model_Hair_9_B.psd'
p166
I985738461
sS'/Sources/Jojo2/Data/Gfx/FemaleModelNew/Female_SkinToneB_enter_2.psd'
p167
I-1876356143
sS'/Sources/Jojo2/Data/Gfx/FemaleModel/Female_Model_Hair_7_C.psd'
p168
I-197788371
sS'/Sources/Jojo2/Data/Gfx/FemaleModel/Female_SkinToneA_idle_2.psd'
p169
I1540068248
sS'/Sources/Jojo2/Data/Gfx/FemaleModelNew/Female_Model_Hair_6_A.psd'
p170
I-1721690584
sS'/Sources/Jojo2/Data/Gfx/FemaleModel/Female_Model_Face_E.psd'
p171
I842215319
sS'/Sources/Jojo2/Data/Gfx/FemaleModelNew/Female_Model_Hair_BobBlack.psd'
p172
I-1924327908
sS'/Sources/Jojo2/Data/Gfx/FemaleModelNew/Female_Model_Hair_8_A.psd'
p173
I-173764851
sS'/Sources/Jojo2/Data/Gfx/MaleModel/Male_SkinToneB_enter_4.psd'
p174
I1161198702
sS'/Sources/Jojo2/Data/Gfx/MaleModel/Male_Model_Hair_6_D.psd'
p175
I-356125806
sS'/Sources/Jojo2/Data/Gfx/MaleModel/Male_SkinToneD_enter_4.psd'
p176
I1639954583
sS'/Sources/Jojo2/Data/Gfx/MaleModel/Male_SkinToneD_normal.psd'
p177
I-708822138
sS'/Sources/Jojo2/Data/Gfx/MaleModel/Male_Model_Hair_4_A.psd'
p178
I50162610
sS'/Sources/Jojo2/Data/Gfx/FemaleModel/Female_Model_Hair_BangsRed.psd'
p179
I-1162995889
sS'/Sources/Jojo2/Data/Gfx/FemaleModel/Female_Model_Hair_1_B.psd'
p180
I-385974772
sS'/Sources/Jojo2/Data/Gfx/FemaleModel/Female_SkinToneC_idle_3.psd'
p181
I1159370312
sS'/Sources/Jojo2/Data/Gfx/FemaleModelNew/Female_SkinToneA_idle_1.psd'
p182
I-1789554473
sS'/Sources/Jojo2/Data/Gfx/MaleModel/Male_Model_Hair_9_B.psd'
p183
I-856015311
sS'/Sources/Jojo2/Data/Gfx/FemaleModelNew/Female_Model_Hair_6_C.psd'
p184
I-896861472
sS'/Sources/Jojo2/Data/Gfx/FemaleModel/Female_Model_Hair_PointyBlack.psd'
p185
I-462953219
sS'/Sources/Jojo2/Data/Gfx/MaleModel/Male_SkinToneB_normal.psd'
p186
I314693512
sS'/Sources/Jojo2/Data/Gfx/FemaleModel/Female_Model_Hair_ShoulderLengthLightBrown.psd'
p187
I-1235861026
sS'/Sources/Jojo2/Data/Gfx/FemaleModelNew/Female_SkinToneA_idle_4.psd'
p188
I2011850920
sS'/Sources/Jojo2/Data/Gfx/FemaleModelNew/Female_Model_Hair_10_D.psd'
p189
I871537587
sS'/Sources/Jojo2/Data/Gfx/FemaleModel/Female_ModelHeads_SkinToneB.psd'
p190
I1587403612
sS'/Sources/Jojo2/Data/Gfx/FemaleModelNew/Female_Model_Hair_BackLayer_LongBrown_Back.psd'
p191
I504974151
sS'/Sources/Jojo2/Data/Gfx/FemaleModel/Female_Model_Hair_LongBrown.psd'
p192
I286669731
sS'/Sources/Jojo2/Data/Gfx/FemaleModelNew/Female_Model_Hair_BobRed.psd'
p193
I1937732388
sS'/Sources/Jojo2/Data/Gfx/FemaleModel/Female_Model_Hair_11_A.psd'
p194
I-592801517
sS'/Sources/Jojo2/Data/Gfx/FemaleModel/Female_SkinToneA_enter_4.psd'
p195
I1508517297
sS'/Sources/Jojo2/Data/Gfx/MaleModel/Male_Model_Hair_3_A.psd'
p196
I-612310374
sS'/Sources/Jojo2/Data/Gfx/MaleModel/Male_SkinToneA_enter_4.psd'
p197
I1513203611
sS'/Sources/Jojo2/Data/Gfx/FemaleModel/Female_Model_Face_D.psd'
p198
I897755703
sS'/Sources/Jojo2/Data/Gfx/FemaleModel/Female_Model_Hair_3_D.psd'
p199
I-885529356
sS'/Sources/Jojo2/Data/Gfx/FemaleModel/Female_Model_Hair_ShoulderLengthRed.psd'
p200
I1322326154
sS'/Sources/Jojo2/Data/Gfx/FemaleModel/Female_Model_Hair_BangsBrown.psd'
p201
I-315329252
sS'/Sources/Jojo2/Data/Gfx/MaleModel/Male_SkinToneC_normal.psd'
p202
I534211360
sS'/Sources/Jojo2/Data/Gfx/FemaleModelNew/Female_Model_Hair_7_D.psd'
p203
I717106295
sS'/Sources/Jojo2/Data/Gfx/FemaleModel/Female_Model_Hair_1_A.psd'
p204
I684932173
sS'/Sources/Jojo2/Data/Gfx/MaleModel/Male_Model_Face_E.psd'
p205
I1847344238
sS'/Sources/Jojo2/Data/Gfx/MaleModel/Male_SkinToneC_idle_4.psd'
p206
I2049757068
sS'/Sources/Jojo2/Data/Gfx/FemaleModel/Female_Model_Hair_2_B.psd'
p207
I1777230962
sS'/Sources/Jojo2/Data/Gfx/MaleModel/Male_Model_Hair_2_B.psd'
p208
I2091818420
sS'/Sources/Jojo2/Data/Gfx/FemaleModelNew/Female_SkinToneA_enter_4.psd'
p209
I1868235133
sS'/Sources/Jojo2/Data/Gfx/FemaleModelNew/Female_Model_Hair_PointyRed.psd'
p210
I-675408020
sS'/Sources/Jojo2/Data/Gfx/FemaleModelNew/Female_SkinToneB_enter_3.psd'
p211
I-587111876
sS'/Sources/Jojo2/Data/Gfx/RunwayMode/dressing_room_glow.psd'
p212
I1912880211
sS'/Sources/Jojo2/Data/Gfx/MaleModel/Male_Model_Hair_10_B.psd'
p213
I-1966493246
sS'/Sources/Jojo2/Data/Gfx/FemaleModelNew/Female_SkinToneC_enter_3.psd'
p214
I2032765795
sS'/Sources/Jojo2/Data/Gfx/MaleModel/Male_Model_Hair_5_A.psd'
p215
I532171395
sS'/Sources/Jojo2/Data/Gfx/FemaleModel/Female_Model_Hair_3_E.psd'
p216
I411871627
sS'/Sources/Jojo2/Data/Gfx/FemaleModel/Female_Model_Hair_BobBlack.psd'
p217
I-1401900862
sS'/Sources/Jojo2/Data/Gfx/MaleModel/Male_SkinToneB_idle_4.psd'
p218
I1313448612
sS'/Sources/Jojo2/Data/Gfx/FemaleModel/Female_Model_Hair_PointyBrown.psd'
p219
I-1280126091
sS'/Sources/Jojo2/Data/Gfx/FemaleModel/Female_Model_Hair_ChinLengthBlonde.psd'
p220
I2025084167
sS'/Sources/Jojo2/Data/Gfx/FemaleModelNew/Female_SkinToneA_enter_3.psd'
p221
I1736154843
sS'/Sources/Jojo2/Data/Gfx/FemaleModel/Female_SkinToneB_enter_1.psd'
p222
I-1073295866
sS'/Sources/Jojo2/Data/Gfx/MaleModel/Male_SkinToneA_idle_2.psd'
p223
I-564883478
sS'/Sources/Jojo2/Data/Gfx/FemaleModel/Female_Model_Hair_PointyRed.psd'
p224
I1516138619
sS'/Sources/Jojo2/Data/Gfx/MaleModel/Male_SkinToneC_enter_2.psd'
p225
I330303087
sS'/Sources/Jojo2/Data/Gfx/MaleModel/Male_SkinToneD_idle_4.psd'
p226
I1785720668
sS'/Sources/Jojo2/Data/Gfx/FemaleModel/Female_SkinToneD_idle_2.psd'
p227
I225620140
sS'/Sources/Jojo2/Data/Gfx/FemaleModelNew/Female_Model_Hair_BackLayer_10_C_back.psd'
p228
I522640982
sS'/Sources/Jojo2/Data/Gfx/FemaleModelNew/Female_Model_Hair_FroBlack.psd'
p229
I575252355
sS'/Sources/Jojo2/Data/Gfx/MaleModel/Male_Model_Face_H.psd'
p230
I-318264176
sS'/Sources/Jojo2/Data/Gfx/FemaleModelNew/Female_Model_Hair_3_D.psd'
p231
I-1107206675
sS'/Sources/Jojo2/Data/Gfx/FemaleModelNew/Female_Model_Hair_BobBrown.psd'
p232
I-72819202
sS'/Sources/Jojo2/Data/Gfx/FemaleModelNew/Female_Model_Hair_1_C.psd'
p233
I-1874136396
sS'/Sources/Jojo2/Data/Gfx/FemaleModel/Female_Model_Face_B.psd'
p234
I-758147012
sS'/Sources/Jojo2/Data/Gfx/FemaleModelNew/Female_Model_Hair_BackLayer_BangsLightBrown_back.psd'
p235
I255899485
sS'/Sources/Jojo2/Data/Gfx/FemaleModelNew/Female_Model_Face_F.psd'
p236
I-1722522696
sS'/Sources/Jojo2/Data/Gfx/FemaleModelNew/Female_ModelHeads_SkinToneB.psd'
p237
I116092211
sS'/Sources/Jojo2/Data/Gfx/RunwayMode/scoring_display_photos.psd'
p238
I-1760637101
sS'/Sources/Jojo2/Data/Gfx/MaleModel/Male_Model_Hair_10_D.psd'
p239
I-529001948
sS'/Sources/Jojo2/Data/Gfx/MaleModel/Male_Model_Face_B.psd'
p240
I-689905806
sS'/Sources/Jojo2/Data/Gfx/FemaleModel/Female_SkinToneD_enter_1.psd'
p241
I-1306615617
sS'/Sources/Jojo2/Data/Gfx/MaleModel/Male_SkinToneD_enter_3.psd'
p242
I1147344811
sS'/Sources/Jojo2/Data/Gfx/MaleModel/Male_SkinToneB_idle_5.psd'
p243
I1514581868
sS'/Sources/Jojo2/Data/Gfx/FemaleModel/Female_Model_Hair_3_A.psd'
p244
I-2089366704
sS'/Sources/Jojo2/Data/Gfx/FemaleModel/Female_Model_Hair_2_A.psd'
p245
I-362203257
sS'/Sources/Jojo2/Data/Gfx/RunwayMode/attributes_star.psd'
p246
I-1088951768
sS'/Sources/Jojo2/Data/Gfx/FemaleModelNew/Female_SkinToneD_enter_1.psd'
p247
I-974212269
sS'/Sources/Jojo2/Data/Gfx/FemaleModelNew/Female_Model_Hair_5_A.psd'
p248
I-1191016364
sS'/Sources/Jojo2/Data/Gfx/FemaleModel/Female_SkinToneA_enter_1.psd'
p249
I-669481436
sS'/Sources/Jojo2/Data/Gfx/FemaleModel/Female_SkinToneC_idle_2.psd'
p250
I2074286385
sS'/Sources/Jojo2/Data/Gfx/MaleModel/Male_SkinToneA_enter_3.psd'
p251
I-174702157
sS'/Sources/Jojo2/Data/Gfx/FemaleModelNew/Female_Model_Hair_8_B.psd'
p252
I510816545
sS'/Sources/Jojo2/Data/Gfx/FemaleModelNew/Female_Model_Hair_ShortBrown.psd'
p253
I-824109551
sS'/Sources/Jojo2/Data/Gfx/MaleModel/Male_Model_Hair_1_A.psd'
p254
I1926183243
sS'/Sources/Jojo2/Data/Gfx/FemaleModelNew/Female_Model_Hair_BangsRed.psd'
p255
I1482936255
sS'/Sources/Jojo2/Data/Gfx/FemaleModel/Female_SkinToneD_enter_4.psd'
p256
I1784037720
sS'/Sources/Jojo2/Data/Gfx/FemaleModelNew/Female_Model_Hair_10_C.psd'
p257
I949281676
sS'/Sources/Jojo2/Data/Gfx/MaleModel/Male_SkinToneB_enter_3.psd'
p258
I-99892570
sS'/Sources/Jojo2/Data/Gfx/FemaleModelNew/Female_Model_Hair_FroBlonde.psd'
p259
I-2070561297
sS'/Sources/Jojo2/Data/Gfx/FemaleModel/Female_Model_Hair_10_D.psd'
p260
I1763651312
sS'/Sources/Jojo2/Data/Gfx/FemaleModelNew/Female_Model_Hair_LongLightBrown.psd'
p261
I2126919276
sS'/Sources/Jojo2/Data/Gfx/FemaleModelNew/Female_Model_Face_B.psd'
p262
I1996116212
sS'/Sources/Jojo2/Data/Gfx/FemaleModel/Female_Model_Hair_BackLayer_10_C_back.psd'
p263
I-1554183372
sS'/Sources/Jojo2/Data/Gfx/FemaleModelNew/Female_Model_Hair_3_F.psd'
p264
I1918614751
sS'/Sources/Jojo2/Data/Gfx/MaleModel/Male_ModelHeads_SkinToneD.psd'
p265
I-1612431833
sS'/Sources/Jojo2/Data/Gfx/PhotoModeUI/ButtonPause.psd'
p266
I1565141212
sS'/Sources/Jojo2/Data/Gfx/RunwayMode/finalscore_bg.psd'
p267
I-252414368
sS'/Sources/Jojo2/Data/Gfx/MaleModel/Male_SkinToneA_idle_5.psd'
p268
I-1646846123
sS'/Sources/Jojo2/Data/Gfx/FemaleModel/Female_SkinToneB_idle_2.psd'
p269
I-90869574
sS'/Sources/Jojo2/Data/Gfx/FemaleModelNew/Female_Model_Hair_BackLayer_10_A_back.psd'
p270
I-1849118370
sS'/Sources/Jojo2/Data/Gfx/PhotoModeLevel1/background.psd'
p271
I890779366
sS'/Sources/Jojo2/Data/Gfx/FemaleModel/Female_Model_Hair_BackLayer_10_D_back.psd'
p272
I592733443
sS'/Sources/Jojo2/Data/Gfx/FemaleModel/Female_SkinToneC_enter_1.psd'
p273
I-1599258088
sS'/Sources/Jojo2/Data/Gfx/FemaleModelNew/Female_Model_Hair_ShoulderLengthDarkBrown.psd'
p274
I1299820395
sS'/Sources/Jojo2/Data/Gfx/MaleModel/Male_Model_Hair_6_C.psd'
p275
I-107810101
sS'/Sources/Jojo2/Data/Gfx/MaleModel/Male_ModelHeads_SkinToneC.psd'
p276
I570059457
sS'/Sources/Jojo2/Data/Gfx/MaleModel/Male_SkinToneB_idle_3.psd'
p277
I-448580438
sS'/Sources/Jojo2/Data/Gfx/FemaleModelNew/Female_Model_Hair_BackLayer_LongLightBrown_back.psd'
p278
I-358803681
sS'/Sources/Jojo2/Data/Gfx/Fonts/temp_font.psd'
p279
I-242780832
sS'/Sources/Jojo2/Data/Gfx/FemaleModel/Female_SkinToneA_idle_1.psd'
p280
I1232944556
sS'/Sources/Jojo2/Data/Gfx/FemaleModel/Female_Model_Hair_6_A.psd'
p281
I1865908924
sS'/Sources/Jojo2/Data/Gfx/RunwayMode/nomatch_small.psd'
p282
I-1929444676
sS'/Sources/Jojo2/Data/Gfx/FemaleModel/Female_Model_Hair_BackLayer_BangsBrown_back.psd'
p283
I49626638
sS'/Sources/Jojo2/Data/Gfx/FemaleModel/Female_SkinToneD_idle_1.psd'
p284
I-1019403286
sS'/Sources/Jojo2/Data/Gfx/FemaleModelNew/Female_Model_Hair_BoyCutBlack.psd'
p285
I782572692
sS'/Sources/Jojo2/Data/Gfx/MaleModel/Male_SkinToneD_enter_6.psd'
p286
I-1209437777
sS'/Sources/Jojo2/Data/Gfx/FemaleModelNew/Female_Model_Hair_BackLayer_10_D_back.psd'
p287
I-1215194096
sS'/Sources/Jojo2/Data/Gfx/MaleModel/Male_Model_Hair_8_A.psd'
p288
I1118992575
sS'/Sources/Jojo2/Data/Gfx/MaleModel/Male_SkinToneD_idle_5.psd'
p289
I-792487830
sS'/Sources/Jojo2/Data/Gfx/FemaleModel/Female_SkinToneC_idle_1.psd'
p290
I-1964820790
sS'/Sources/Jojo2/Data/Gfx/RunwayMode/dressing_room_bg.psd'
p291
I-485014825
sS'/Sources/Jojo2/Data/Gfx/FemaleModelNew/Female_Model_Hair_5_D.psd'
p292
I469799677
sS'/Sources/Jojo2/Data/Gfx/MaleModel/Male_Model_Hair_7_A.psd'
p293
I1354221652
sS'/Sources/Jojo2/Data/Gfx/FemaleModel/Female_Model_Face_C.psd'
p294
I-407722219
sS'/Sources/Jojo2/Data/Gfx/FemaleModelNew/Female_Model_Hair_ShoulderLengthLightBrown.psd'
p295
I204716846
sS'/Sources/Jojo2/Data/Gfx/MaleModel/Male_SkinToneB_idle_1.psd'
p296
I153658480
sS'/Sources/Jojo2/Data/Gfx/FemaleModelNew/Female_Model_Hair_10_A.psd'
p297
I-1036110002
sS'/Sources/Jojo2/Data/Gfx/FemaleModelNew/Female_Model_Hair_1_A.psd'
p298
I617102439
sS'/Sources/Jojo2/Data/Gfx/FemaleModel/Female_Model_Hair_BackLayer_LongBrown_Back.psd'
p299
I71321984
sS'/Sources/Jojo2/Data/Gfx/PhotoModeUI/ButtonPhoto.psd'
p300
I-1321990037
sS'/Sources/Jojo2/Data/Gfx/FemaleModelNew/Female_SkinToneA_idle_3.psd'
p301
I324426735
sS'/Sources/Jojo2/Data/Gfx/FemaleModel/Female_ModelHeads_SkinToneA.psd'
p302
I1747937515
sS'/Sources/Jojo2/Data/Gfx/FemaleModel/Female_Model_Hair_4_A.psd'
p303
I-1691976543
sS'/Sources/Jojo2/Data/Gfx/MaleModel/Male_Model_Hair_2_A.psd'
p304
I1893739004
sS'/Sources/Jojo2/Data/Gfx/MaleModel/Male_SkinToneA_idle_3.psd'
p305
I774624026
sS'/Sources/Jojo2/Data/Gfx/FemaleModel/Female_SkinToneD_enter_3.psd'
p306
I455893945
sS'/Sources/Jojo2/Data/Gfx/FemaleModel/Female_Model_Hair_ChinLengthBrown.psd'
p307
I-1772388433
sS'/Sources/Jojo2/Data/Gfx/MaleModel/Male_Model_Hair_5_B.psd'
p308
I-1281075007
sS'/Sources/Jojo2/Data/Gfx/FemaleModel/Female_Model_Hair_BackLayer_10_A_back.psd'
p309
I-1005398442
sS'/Sources/Jojo2/Data/Gfx/FemaleModel/Female_SkinToneA_idle_4.psd'
p310
I-266590156
sS'/Sources/Jojo2/Data/Gfx/RunwayMode/button_send_model.psd'
p311
I540080825
sS'/Sources/Jojo2/Data/Gfx/FemaleModel/Female_Model_Hair_8_A.psd'
p312
I2090449506
sS'/Sources/Jojo2/Data/Gfx/FemaleModelNew/Female_Model_Hair_BackLayer_10_B_back.psd'
p313
I239149557
sS'/Sources/Jojo2/Data/Gfx/FemaleModelNew/Female_SkinToneB_idle_2.psd'
p314
I486477723
sS'/Sources/Jojo2/Data/Gfx/FemaleModel/Female_Model_Hair_7_A.psd'
p315
I-423340382
sS'/Sources/Jojo2/Data/Gfx/FemaleModelNew/Female_ModelHeads_SkinToneC.psd'
p316
I-1722239716
sS'/Sources/Jojo2/Data/Gfx/FemaleModelNew/Female_SkinToneC_enter_1.psd'
p317
I257037769
sS'/Sources/Jojo2/Data/Gfx/FemaleModel/Female_Model_Hair_BoyCutBlonde.psd'
p318
I-1208597930
sS'/Sources/Jojo2/Data/Gfx/MaleModel/Male_Model_Hair_8_C.psd'
p319
I-1488360657
sS'/Sources/Jojo2/Data/Gfx/FemaleModelNew/Female_Model_Hair_7_A.psd'
p320
I2061493709
sS'/Sources/Jojo2/Data/Gfx/FemaleModel/Female_Model_Hair_BackLayer_BangsLightBrown_back.psd'
p321
I517180865
sS'/Sources/Jojo2/Data/Gfx/MaleModel/Male_Model_Face_G.psd'
p322
I-694609878
sS'/Sources/Jojo2/Data/Gfx/FemaleModelNew/Female_SkinToneD_normal.psd'
p323
I-1952746188
sS'/Sources/Jojo2/Data/Gfx/MaleModel/Male_SkinToneA_idle_4.psd'
p324
I-1861247695
sS'/Sources/Jojo2/Data/Gfx/FemaleModel/Female_Model_Hair_BobBrown.psd'
p325
I303987542
sS'/Sources/Jojo2/Data/Gfx/FemaleModel/Female_SkinToneB_enter_2.psd'
p326
I1780328041
sS'/Sources/Jojo2/Data/Gfx/FemaleModelNew/Female_Model_Hair_PointyBlack.psd'
p327
I-909630197
sS'/Sources/Jojo2/Data/Gfx/FemaleModel/Female_SkinToneC_enter_2.psd'
p328
I-731055454
sS'/Sources/Jojo2/Data/Gfx/MaleModel/Male_SkinToneA_idle_1.psd'
p329
I1765117504
sS'/Sources/Jojo2/Data/Gfx/MaleModel/Male_Model_Hair_10_C.psd'
p330
I-145335788
sS'/Sources/Jojo2/Data/Gfx/MaleModel/Male_SkinToneB_idle_2.psd'
p331
I234062526
sS'/Sources/Jojo2/Data/Gfx/FemaleModelNew/Female_Model_Hair_11_A.psd'
p332
I467119611
sS'/Sources/Jojo2/Data/Gfx/FemaleModel/Female_Model_Hair_10_C.psd'
p333
I1850648124
sS'/Sources/Jojo2/Data/Gfx/FemaleModelNew/Female_Model_Hair_2_C.psd'
p334
I-1392845525
sS'/Sources/Jojo2/Data/Gfx/FemaleModel/Female_Model_Hair_2_C.psd'
p335
I1542713482
sS'/Sources/Jojo2/Data/Gfx/FemaleModel/Female_Model_Hair_3_F.psd'
p336
I418174343
sS'/Sources/Jojo2/Data/Gfx/FemaleModelNew/Female_SkinToneD_idle_1.psd'
p337
I-675952894
sS'/Sources/Jojo2/Data/Gfx/FemaleModelNew/Female_SkinToneC_enter_4.psd'
p338
I112476297
sS'/Sources/Jojo2/Data/Gfx/FemaleModel/Female_Model_Hair_BackLayer_LongBlonde_back.psd'
p339
I-729366630
sS'/Sources/Jojo2/Data/Gfx/MaleModel/Male_SkinToneA_normal.psd'
p340
I-1109633539
sS'/Sources/Jojo2/Data/Gfx/FemaleModelNew/Female_Model_Face_E.psd'
p341
I-1336932012
sS'/Sources/Jojo2/Data/Gfx/FemaleModelNew/Female_ModelHeads_SkinToneA.psd'
p342
I-624434463
sS'/Sources/Jojo2/Data/Gfx/MaleModel/Male_SkinToneC_enter_5.psd'
p343
I-966073054
sS'/Sources/Jojo2/Data/Gfx/FemaleModelNew/Female_Model_Hair_4_A.psd'
p344
I-27635018
s.